; Function Attrs: nounwind uwtable
define internal i32 @test_CTX_set_get_log_cb() #1 {
  %1 = tail call fastcc ptr @set_up(ptr noundef nonnull @.str.5)
  %2 = icmp eq ptr %1, null
  br i1 %2, label %53, label %3

3:                                                ; preds = %0
  %4 = getelementptr i8, ptr %1, i64 8
  %.val = load ptr, ptr %4, align 8, !tbaa !4
  %5 = tail call i64 @ERR_peek_error() #6
  %6 = trunc i64 %5 to i32
  %7 = tail call i32 @test_int_eq(ptr noundef nonnull @.str, i32 noundef 749, ptr noundef nonnull @.str.62, ptr noundef nonnull @.str.63, i32 noundef %6, i32 noundef 0) #6
  %8 = tail call i32 @OSSL_CMP_CTX_set_log_cb(ptr noundef null, ptr noundef nonnull @test_log_cb) #6
  %.not29.i = icmp eq i32 %8, 0
  br i1 %.not29.i, label %9, label %12

9:                                                ; preds = %3
  %.not.i = icmp ne i32 %7, 0
  %spec.select.i = zext i1 %.not.i to i32
  %10 = tail call i64 @ERR_peek_error() #6
  %11 = icmp eq i64 %10, 0
  br i1 %11, label %12, label %13

12:                                               ; preds = %9, %3
  tail call void (ptr, i32, ptr, ...) @test_error(ptr noundef nonnull @.str, i32 noundef 749, ptr noundef nonnull @.str.64) #6
  br label %13

13:                                               ; preds = %12, %9
  %.1.i = phi i32 [ 0, %12 ], [ %spec.select.i, %9 ]
  tail call void @ERR_clear_error() #6
  tail call void @ERR_new() #6
  tail call void @ERR_set_debug(ptr noundef nonnull @.str, i32 noundef 749, ptr noundef nonnull @__func__.OSSL_CMP_CTX_get_log_cb) #6
  tail call void (i32, i32, ptr, ...) @ERR_set_error(i32 noundef 58, i32 noundef 103, ptr noundef null) #6
  %14 = tail call i64 @ERR_peek_error() #6
  %15 = icmp eq i64 %14, 0
  br i1 %15, label %16, label %17

16:                                               ; preds = %13
  tail call void (ptr, i32, ptr, ...) @test_error(ptr noundef nonnull @.str, i32 noundef 749, ptr noundef nonnull @.str.65) #6
  br label %17

17:                                               ; preds = %16, %13
  %.2.i = phi i32 [ 0, %16 ], [ %.1.i, %13 ]
  tail call void @ERR_clear_error() #6
  %18 = icmp eq ptr %.val, null
  br i1 %18, label %OSSL_CMP_CTX_get_log_cb.exit.thread.i, label %OSSL_CMP_CTX_get_log_cb.exit.i

OSSL_CMP_CTX_get_log_cb.exit.thread.i:            ; preds = %17
  tail call void @ERR_new() #6
  tail call void @ERR_set_debug(ptr noundef nonnull @.str, i32 noundef 749, ptr noundef nonnull @__func__.OSSL_CMP_CTX_get_log_cb) #6
  tail call void (i32, i32, ptr, ...) @ERR_set_error(i32 noundef 58, i32 noundef 103, ptr noundef null) #6
  br label %23

OSSL_CMP_CTX_get_log_cb.exit.i:                   ; preds = %17
  %19 = getelementptr inbounds nuw i8, ptr %.val, i64 16
  %20 = load ptr, ptr %19, align 8, !tbaa !40
  %21 = icmp eq ptr %20, null
  br i1 %21, label %23, label %22

22:                                               ; preds = %OSSL_CMP_CTX_get_log_cb.exit.i
  tail call void (ptr, i32, ptr, ...) @test_error(ptr noundef nonnull @.str, i32 noundef 749, ptr noundef nonnull @.str.66) #6
  br label %23

23:                                               ; preds = %22, %OSSL_CMP_CTX_get_log_cb.exit.i, %OSSL_CMP_CTX_get_log_cb.exit.thread.i
  %.3.i = phi i32 [ %.2.i, %OSSL_CMP_CTX_get_log_cb.exit.i ], [ 0, %22 ], [ %.2.i, %OSSL_CMP_CTX_get_log_cb.exit.thread.i ]
  %24 = tail call i32 @OSSL_CMP_CTX_set_log_cb(ptr noundef %.val, ptr noundef nonnull @test_log_cb) #6
  %.not31.i = icmp eq i32 %24, 0
  br i1 %.not31.i, label %25, label %26

25:                                               ; preds = %23
  tail call void (ptr, i32, ptr, ...) @test_error(ptr noundef nonnull @.str, i32 noundef 749, ptr noundef nonnull @.str.67) #6
  br label %26

26:                                               ; preds = %25, %23
  %.4.i = phi i32 [ %.3.i, %23 ], [ 0, %25 ]
  br i1 %18, label %OSSL_CMP_CTX_get_log_cb.exit39.thread.i, label %OSSL_CMP_CTX_get_log_cb.exit39.i

OSSL_CMP_CTX_get_log_cb.exit39.thread.i:          ; preds = %26
  tail call void @ERR_new() #6
  tail call void @ERR_set_debug(ptr noundef nonnull @.str, i32 noundef 749, ptr noundef nonnull @__func__.OSSL_CMP_CTX_get_log_cb) #6
  tail call void (i32, i32, ptr, ...) @ERR_set_error(i32 noundef 58, i32 noundef 103, ptr noundef null) #6
  br label %29

OSSL_CMP_CTX_get_log_cb.exit39.i:                 ; preds = %26
  %27 = getelementptr inbounds nuw i8, ptr %.val, i64 16
  %28 = load ptr, ptr %27, align 8, !tbaa !40
  %.not32.i = icmp eq ptr %28, @test_log_cb
  br i1 %.not32.i, label %30, label %29

29:                                               ; preds = %OSSL_CMP_CTX_get_log_cb.exit39.i, %OSSL_CMP_CTX_get_log_cb.exit39.thread.i
  tail call void (ptr, i32, ptr, ...) @test_error(ptr noundef nonnull @.str, i32 noundef 749, ptr noundef nonnull @.str.68) #6
  br label %30

30:                                               ; preds = %29, %OSSL_CMP_CTX_get_log_cb.exit39.i
  %.5.i = phi i32 [ 0, %29 ], [ %.4.i, %OSSL_CMP_CTX_get_log_cb.exit39.i ]
  %31 = tail call i32 @OSSL_CMP_CTX_set_log_cb(ptr noundef %.val, ptr noundef nonnull @test_log_cb) #6
  %.not33.i = icmp eq i32 %31, 0
  br i1 %.not33.i, label %32, label %33

32:                                               ; preds = %30
  tail call void (ptr, i32, ptr, ...) @test_error(ptr noundef nonnull @.str, i32 noundef 749, ptr noundef nonnull @.str.69) #6
  br label %33

33:                                               ; preds = %32, %30
  %.6.i = phi i32 [ %.5.i, %30 ], [ 0, %32 ]
  br i1 %18, label %OSSL_CMP_CTX_get_log_cb.exit41.thread.i, label %OSSL_CMP_CTX_get_log_cb.exit41.i

OSSL_CMP_CTX_get_log_cb.exit41.thread.i:          ; preds = %33
  tail call void @ERR_new() #6
  tail call void @ERR_set_debug(ptr noundef nonnull @.str, i32 noundef 749, ptr noundef nonnull @__func__.OSSL_CMP_CTX_get_log_cb) #6
  tail call void (i32, i32, ptr, ...) @ERR_set_error(i32 noundef 58, i32 noundef 103, ptr noundef null) #6
  br label %38

OSSL_CMP_CTX_get_log_cb.exit41.i:                 ; preds = %33
  %34 = getelementptr inbounds nuw i8, ptr %.val, i64 16
  %35 = load ptr, ptr %34, align 8, !tbaa !40
  %36 = icmp eq ptr %35, null
  br i1 %36, label %38, label %37

37:                                               ; preds = %OSSL_CMP_CTX_get_log_cb.exit41.i
  %.not34.i = icmp eq ptr %35, @test_log_cb
  br i1 %.not34.i, label %OSSL_CMP_CTX_get_log_cb.exit43.i, label %.thread19.i

.thread19.i:                                      ; preds = %37
  tail call void (ptr, i32, ptr, ...) @test_error(ptr noundef nonnull @.str, i32 noundef 749, ptr noundef nonnull @.str.71) #6
  br label %OSSL_CMP_CTX_get_log_cb.exit43.i

38:                                               ; preds = %OSSL_CMP_CTX_get_log_cb.exit41.i, %OSSL_CMP_CTX_get_log_cb.exit41.thread.i
  tail call void (ptr, i32, ptr, ...) @test_error(ptr noundef nonnull @.str, i32 noundef 749, ptr noundef nonnull @.str.70) #6
  tail call void (ptr, i32, ptr, ...) @test_error(ptr noundef nonnull @.str, i32 noundef 749, ptr noundef nonnull @.str.71) #6
  br i1 %18, label %OSSL_CMP_CTX_get_log_cb.exit43.thread.i, label %OSSL_CMP_CTX_get_log_cb.exit43.i

OSSL_CMP_CTX_get_log_cb.exit43.thread.i:          ; preds = %38
  tail call void @ERR_new() #6
  tail call void @ERR_set_debug(ptr noundef nonnull @.str, i32 noundef 749, ptr noundef nonnull @__func__.OSSL_CMP_CTX_get_log_cb) #6
  tail call void (i32, i32, ptr, ...) @ERR_set_error(i32 noundef 58, i32 noundef 103, ptr noundef null) #6
  br label %42

OSSL_CMP_CTX_get_log_cb.exit43.i:                 ; preds = %38, %.thread19.i, %37
  %.818.i = phi i32 [ 0, %38 ], [ 0, %.thread19.i ], [ %.6.i, %37 ]
  %.0.i4051116.i = phi ptr [ null, %38 ], [ %35, %.thread19.i ], [ @test_log_cb, %37 ]
  %39 = getelementptr inbounds nuw i8, ptr %.val, i64 16
  %40 = load ptr, ptr %39, align 8, !tbaa !40
  %41 = icmp eq ptr %40, null
  br i1 %41, label %42, label %43

42:                                               ; preds = %OSSL_CMP_CTX_get_log_cb.exit43.i, %OSSL_CMP_CTX_get_log_cb.exit43.thread.i
  %.0.i405111525.i = phi ptr [ null, %OSSL_CMP_CTX_get_log_cb.exit43.thread.i ], [ %.0.i4051116.i, %OSSL_CMP_CTX_get_log_cb.exit43.i ]
  tail call void (ptr, i32, ptr, ...) @test_error(ptr noundef nonnull @.str, i32 noundef 749, ptr noundef nonnull @.str.72) #6
  br label %43

43:                                               ; preds = %42, %OSSL_CMP_CTX_get_log_cb.exit43.i
  %.0.i4226.i = phi ptr [ null, %42 ], [ %40, %OSSL_CMP_CTX_get_log_cb.exit43.i ]
  %.0.i405111524.i = phi ptr [ %.0.i405111525.i, %42 ], [ %.0.i4051116.i, %OSSL_CMP_CTX_get_log_cb.exit43.i ]
  %.9.i = phi i32 [ 0, %42 ], [ %.818.i, %OSSL_CMP_CTX_get_log_cb.exit43.i ]
  %.not35.i = icmp eq ptr %.0.i4226.i, %.0.i405111524.i
  br i1 %.not35.i, label %tear_down.exit, label %44

44:                                               ; preds = %43
  tail call void (ptr, i32, ptr, ...) @test_error(ptr noundef nonnull @.str, i32 noundef 749, ptr noundef nonnull @.str.73) #6
  br label %tear_down.exit

tear_down.exit:                                   ; preds = %43, %44
  %.10.i = phi i32 [ 0, %44 ], [ %.9.i, %43 ]
  %45 = tail call i64 @ERR_peek_error() #6
  %46 = trunc i64 %45 to i32
  %47 = tail call i32 @test_int_eq(ptr noundef nonnull @.str, i32 noundef 749, ptr noundef nonnull @.str.62, ptr noundef nonnull @.str.63, i32 noundef %46, i32 noundef 0) #6
  %.not36.i = icmp ne i32 %47, 0
  %48 = icmp ne i32 %.10.i, 0
  %49 = select i1 %.not36.i, i1 %48, i1 false
  %50 = zext i1 %49 to i32
  %51 = tail call i32 @test_true(ptr noundef nonnull @.str, i32 noundef 749, ptr noundef nonnull @.str.74, i32 noundef %50) #6
  %52 = load ptr, ptr %4, align 8, !tbaa !4
  tail call void @OSSL_CMP_CTX_free(ptr noundef %52) #6
  tail call void @CRYPTO_free(ptr noundef nonnull %1, ptr noundef nonnull @.str, i32 noundef 25) #6
  br label %53

53:                                               ; preds = %0, %tear_down.exit
  %.05 = phi i32 [ %51, %tear_down.exit ], [ 0, %0 ]
  ret i32 %.05
}